target datalayout = "e-m:e-p270:32:32-p271:32:32-p272:64:64-i64:64-i128:128-f80:128-n8:16:32:64-S128"
target triple = "x86_64-pc-linux-gnu"

@_ZZN12_GLOBAL__N_117getSSLExDataIndexEvE5index = internal global i32 0, align 4
@_ZGVZN12_GLOBAL__N_117getSSLExDataIndexEvE5index = internal global i64 0, align 8

; Function Attrs: mustprogress uwtable
define internal noundef i32 @_ZN12_GLOBAL__N_117getSSLExDataIndexEv() #1 personality ptr @__gxx_personality_v0 {
  %1 = alloca ptr, align 8
  %2 = alloca i32, align 4
  %3 = load atomic i8, ptr @_ZGVZN12_GLOBAL__N_117getSSLExDataIndexEvE5index acquire, align 8
  %4 = icmp eq i8 %3, 0
  br i1 %4, label %5, label %11, !prof !181

5:                                                ; preds = %0
  %6 = call i32 @__cxa_guard_acquire(ptr @_ZGVZN12_GLOBAL__N_117getSSLExDataIndexEvE5index) #20
  %7 = icmp ne i32 %6, 0
  br i1 %7, label %8, label %11

8:                                                ; preds = %5
  %9 = invoke i32 @CRYPTO_get_ex_new_index(i32 noundef 0, i64 noundef 0, ptr noundef null, ptr noundef null, ptr noundef null, ptr noundef null)
          to label %10 unwind label %13

10:                                               ; preds = %8
  store i32 %9, ptr @_ZZN12_GLOBAL__N_117getSSLExDataIndexEvE5index, align 4, !tbaa !108
  call void @__cxa_guard_release(ptr @_ZGVZN12_GLOBAL__N_117getSSLExDataIndexEvE5index) #20
  br label %11

11:                                               ; preds = %10, %5, %0
  %12 = load i32, ptr @_ZZN12_GLOBAL__N_117getSSLExDataIndexEvE5index, align 4, !tbaa !108
  ret i32 %12

13:                                               ; preds = %8
  %14 = landingpad { ptr, i32 }
          cleanup
  %15 = extractvalue { ptr, i32 } %14, 0
  store ptr %15, ptr %1, align 8
  %16 = extractvalue { ptr, i32 } %14, 1
  store i32 %16, ptr %2, align 4
  call void @__cxa_guard_abort(ptr @_ZGVZN12_GLOBAL__N_117getSSLExDataIndexEvE5index) #20
  br label %17

17:                                               ; preds = %13
  %18 = load ptr, ptr %1, align 8
  %19 = load i32, ptr %2, align 4
  %20 = insertvalue { ptr, i32 } poison, ptr %18, 0
  %21 = insertvalue { ptr, i32 } %20, i32 %19, 1
  resume { ptr, i32 } %21
}

; Function Attrs: mustprogress uwtable
define void @_ZN5folly3ssl17SSLSessionManager11attachToSSLEP6ssl_st(ptr noundef nonnull align 8 dereferenceable(24) %0, ptr noundef %1) #1 align 2 {
  %3 = alloca ptr, align 8
  %4 = alloca ptr, align 8
  store ptr %0, ptr %3, align 8, !tbaa !7
  store ptr %1, ptr %4, align 8, !tbaa !179
  %5 = load ptr, ptr %3, align 8
  %6 = load ptr, ptr %4, align 8, !tbaa !179
  %7 = call noundef i32 @_ZN12_GLOBAL__N_117getSSLExDataIndexEv()
  %8 = call i32 @SSL_set_ex_data(ptr noundef %6, i32 noundef %7, ptr noundef %5)
  ret void
}