; Function Attrs: mustprogress uwtable
define void @_ZN5folly3ssl17SSLSessionManager11attachToSSLEP6ssl_st(ptr noundef nonnull align 8 dereferenceable(24) %0, ptr noundef %1) local_unnamed_addr #1 align 2 personality ptr @__gxx_personality_v0 {
  %3 = load atomic i8, ptr @_ZGVZN12_GLOBAL__N_117getSSLExDataIndexEvE5index acquire, align 8
  %4 = icmp eq i8 %3, 0
  br i1 %4, label %5, label %_ZN12_GLOBAL__N_117getSSLExDataIndexEv.exit, !prof !92

5:                                                ; preds = %2
  %6 = tail call i32 @__cxa_guard_acquire(ptr nonnull @_ZGVZN12_GLOBAL__N_117getSSLExDataIndexEvE5index) #16
  %.not.i = icmp eq i32 %6, 0
  br i1 %.not.i, label %_ZN12_GLOBAL__N_117getSSLExDataIndexEv.exit, label %7

7:                                                ; preds = %5
  %8 = invoke i32 @CRYPTO_get_ex_new_index(i32 noundef 0, i64 noundef 0, ptr noundef null, ptr noundef null, ptr noundef null, ptr noundef null)
          to label %9 unwind label %10

9:                                                ; preds = %7
  store i32 %8, ptr @_ZZN12_GLOBAL__N_117getSSLExDataIndexEvE5index, align 4, !tbaa !32
  tail call void @__cxa_guard_release(ptr nonnull @_ZGVZN12_GLOBAL__N_117getSSLExDataIndexEvE5index) #16
  br label %_ZN12_GLOBAL__N_117getSSLExDataIndexEv.exit

10:                                               ; preds = %7
  %11 = landingpad { ptr, i32 }
          cleanup
  tail call void @__cxa_guard_abort(ptr nonnull @_ZGVZN12_GLOBAL__N_117getSSLExDataIndexEvE5index) #16
  resume { ptr, i32 } %11

_ZN12_GLOBAL__N_117getSSLExDataIndexEv.exit:      ; preds = %2, %5, %9
  %12 = load i32, ptr @_ZZN12_GLOBAL__N_117getSSLExDataIndexEvE5index, align 4, !tbaa !32
  %13 = tail call i32 @SSL_set_ex_data(ptr noundef %1, i32 noundef %12, ptr noundef nonnull %0)
  ret void
}